target datalayout = "e-m:e-p270:32:32-p271:32:32-p272:64:64-i64:64-i128:128-f80:128-n8:16:32:64-S128"
target triple = "x86_64-pc-linux-gnu"

%struct.sgraph = type { i32, i32, i32, i32, ptr, ptr }
%struct.snode = type { i32, i32, ptr, ptr, i16, i16, [2 x ptr], ptr, i32, i8 }

; Function Attrs: nounwind uwtable
define void @freeSGraph(ptr noundef %0) #0 {
  %2 = alloca ptr, align 8
  store ptr %0, ptr %2, align 8, !tbaa !3
  %3 = load ptr, ptr %2, align 8, !tbaa !3
  %4 = getelementptr inbounds nuw %struct.sgraph, ptr %3, i32 0, i32 4
  %5 = load ptr, ptr %4, align 8, !tbaa !16
  %6 = getelementptr inbounds %struct.snode, ptr %5, i64 0
  %7 = getelementptr inbounds nuw %struct.snode, ptr %6, i32 0, i32 7
  %8 = load ptr, ptr %7, align 8, !tbaa !29
  call void @free(ptr noundef %8) #8
  %9 = load ptr, ptr %2, align 8, !tbaa !3
  %10 = getelementptr inbounds nuw %struct.sgraph, ptr %9, i32 0, i32 4
  %11 = load ptr, ptr %10, align 8, !tbaa !16
  call void @free(ptr noundef %11) #8
  %12 = load ptr, ptr %2, align 8, !tbaa !3
  %13 = getelementptr inbounds nuw %struct.sgraph, ptr %12, i32 0, i32 5
  %14 = load ptr, ptr %13, align 8, !tbaa !28
  call void @free(ptr noundef %14) #8
  %15 = load ptr, ptr %2, align 8, !tbaa !3
  call void @free(ptr noundef %15) #8
  ret void
}