; Function Attrs: mustprogress nounwind willreturn uwtable
define void @freeSGraph(ptr noundef captures(none) %0) local_unnamed_addr #3 {
  %2 = getelementptr inbounds nuw i8, ptr %0, i64 16
  %3 = load ptr, ptr %2, align 8, !tbaa !14
  %4 = getelementptr inbounds nuw i8, ptr %3, i64 48
  %5 = load ptr, ptr %4, align 8, !tbaa !28
  tail call void @free(ptr noundef %5) #14
  %6 = load ptr, ptr %2, align 8, !tbaa !14
  tail call void @free(ptr noundef %6) #14
  %7 = getelementptr inbounds nuw i8, ptr %0, i64 24
  %8 = load ptr, ptr %7, align 8, !tbaa !27
  tail call void @free(ptr noundef %8) #14
  tail call void @free(ptr noundef %0) #14
  ret void
}